; Function Attrs: mustprogress uwtable
define internal void @_ZN12_GLOBAL__N_16TestMuEPNS_11TestContextEi(ptr noundef %cxt, i32 %c) #3 personality ptr @__gxx_personality_v0 {
entry:
  %0 = load i32, ptr %cxt, align 8
  %cmp.not6 = icmp eq i32 %0, 0
  br i1 %cmp.not6, label %for.end, label %for.body.lr.ph

for.body.lr.ph:                                   ; preds = %entry
  %mu = getelementptr inbounds i8, ptr %cxt, i64 16
  %g0 = getelementptr inbounds i8, ptr %cxt, i64 8
  br label %for.body

for.body:                                         ; preds = %for.body.lr.ph, %_ZN4absl9MutexLockD2Ev.exit
  %i.07 = phi i32 [ 0, %for.body.lr.ph ], [ %inc, %_ZN4absl9MutexLockD2Ev.exit ]
  tail call void @_ZN4absl5Mutex4LockEv(ptr noundef nonnull align 8 dereferenceable(8) %mu)
  %1 = load <2 x i32>, ptr %g0, align 8
  %2 = add nsw <2 x i32> %1, <i32 1, i32 -1>
  store <2 x i32> %2, ptr %g0, align 8
  invoke void @_ZN4absl5Mutex6UnlockEv(ptr noundef nonnull align 8 dereferenceable(8) %mu)
          to label %_ZN4absl9MutexLockD2Ev.exit unwind label %terminate.lpad.i

terminate.lpad.i:                                 ; preds = %for.body
  %3 = landingpad { ptr, i32 }
          catch ptr null
  %4 = extractvalue { ptr, i32 } %3, 0
  tail call void @__clang_call_terminate(ptr %4) #38
  unreachable

_ZN4absl9MutexLockD2Ev.exit:                      ; preds = %for.body
  %inc = add nuw nsw i32 %i.07, 1
  %5 = load i32, ptr %cxt, align 8
  %cmp.not = icmp eq i32 %inc, %5
  br i1 %cmp.not, label %for.end, label %for.body, !llvm.loop !316

for.end:                                          ; preds = %_ZN4absl9MutexLockD2Ev.exit, %entry
  ret void
}